target datalayout = "e-m:e-p270:32:32-p271:32:32-p272:64:64-i64:64-i128:128-f80:128-n8:16:32:64-S128"
target triple = "x86_64-pc-linux-gnu"

@_ZN10duckdb_lz4L10inc32tableE = internal constant [8 x i32] [i32 0, i32 1, i32 2, i32 1, i32 0, i32 4, i32 4, i32 4], align 16
@_ZN10duckdb_lz4L10dec64tableE = internal constant [8 x i32] [i32 0, i32 0, i32 0, i32 -1, i32 -4, i32 1, i32 2, i32 3], align 16

; Function Attrs: mustprogress nounwind uwtable
define internal void @_ZN10duckdb_lz4L13LZ4_wildCopy8EPvPKvS0_(ptr noundef %0, ptr noundef %1, ptr noundef %2) #0 {
  %4 = alloca ptr, align 8
  %5 = alloca ptr, align 8
  %6 = alloca ptr, align 8
  %7 = alloca ptr, align 8
  %8 = alloca ptr, align 8
  %9 = alloca ptr, align 8
  store ptr %0, ptr %4, align 8, !tbaa !7
  store ptr %1, ptr %5, align 8, !tbaa !7
  store ptr %2, ptr %6, align 8, !tbaa !7
  call void @llvm.lifetime.start.p0(i64 8, ptr %7) #9
  %10 = load ptr, ptr %4, align 8, !tbaa !7
  store ptr %10, ptr %7, align 8, !tbaa !9
  call void @llvm.lifetime.start.p0(i64 8, ptr %8) #9
  %11 = load ptr, ptr %5, align 8, !tbaa !7
  store ptr %11, ptr %8, align 8, !tbaa !9
  call void @llvm.lifetime.start.p0(i64 8, ptr %9) #9
  %12 = load ptr, ptr %6, align 8, !tbaa !7
  store ptr %12, ptr %9, align 8, !tbaa !9
  br label %13

13:                                               ; preds = %20, %3
  %14 = load ptr, ptr %7, align 8, !tbaa !9
  %15 = load ptr, ptr %8, align 8, !tbaa !9
  call void @llvm.memcpy.p0.p0.i64(ptr align 1 %14, ptr align 1 %15, i64 8, i1 false)
  %16 = load ptr, ptr %7, align 8, !tbaa !9
  %17 = getelementptr inbounds i8, ptr %16, i64 8
  store ptr %17, ptr %7, align 8, !tbaa !9
  %18 = load ptr, ptr %8, align 8, !tbaa !9
  %19 = getelementptr inbounds i8, ptr %18, i64 8
  store ptr %19, ptr %8, align 8, !tbaa !9
  br label %20

20:                                               ; preds = %13
  %21 = load ptr, ptr %7, align 8, !tbaa !9
  %22 = load ptr, ptr %9, align 8, !tbaa !9
  %23 = icmp ult ptr %21, %22
  br i1 %23, label %13, label %24, !llvm.loop !69

24:                                               ; preds = %20
  call void @llvm.lifetime.end.p0(i64 8, ptr %9) #9
  call void @llvm.lifetime.end.p0(i64 8, ptr %8) #9
  call void @llvm.lifetime.end.p0(i64 8, ptr %7) #9
  ret void
}

; Function Attrs: mustprogress nounwind uwtable
define internal void @_ZN10duckdb_lz4L11LZ4_write32EPvj(ptr noundef %0, i32 noundef %1) #0 {
  %3 = alloca ptr, align 8
  %4 = alloca i32, align 4
  store ptr %0, ptr %3, align 8, !tbaa !7
  store i32 %1, ptr %4, align 4, !tbaa !3
  %5 = load i32, ptr %4, align 4, !tbaa !3
  %6 = load ptr, ptr %3, align 8, !tbaa !7
  store i32 %5, ptr %6, align 1, !tbaa !25
  ret void
}

; Function Attrs: mustprogress nounwind uwtable
define internal void @_ZN10duckdb_lz4L28LZ4_memcpy_using_offset_baseEPhPKhS0_m(ptr noundef %0, ptr noundef %1, ptr noundef %2, i64 noundef %3) #0 {
  %5 = alloca ptr, align 8
  %6 = alloca ptr, align 8
  %7 = alloca ptr, align 8
  %8 = alloca i64, align 8
  store ptr %0, ptr %5, align 8, !tbaa !9
  store ptr %1, ptr %6, align 8, !tbaa !9
  store ptr %2, ptr %7, align 8, !tbaa !9
  store i64 %3, ptr %8, align 8, !tbaa !15
  %9 = load i64, ptr %8, align 8, !tbaa !15
  %10 = icmp ult i64 %9, 8
  br i1 %10, label %11, label %51

11:                                               ; preds = %4
  %12 = load ptr, ptr %5, align 8, !tbaa !9
  call void @_ZN10duckdb_lz4L11LZ4_write32EPvj(ptr noundef %12, i32 noundef 0)
  %13 = load ptr, ptr %6, align 8, !tbaa !9
  %14 = getelementptr inbounds i8, ptr %13, i64 0
  %15 = load i8, ptr %14, align 1, !tbaa !25
  %16 = load ptr, ptr %5, align 8, !tbaa !9
  %17 = getelementptr inbounds i8, ptr %16, i64 0
  store i8 %15, ptr %17, align 1, !tbaa !25
  %18 = load ptr, ptr %6, align 8, !tbaa !9
  %19 = getelementptr inbounds i8, ptr %18, i64 1
  %20 = load i8, ptr %19, align 1, !tbaa !25
  %21 = load ptr, ptr %5, align 8, !tbaa !9
  %22 = getelementptr inbounds i8, ptr %21, i64 1
  store i8 %20, ptr %22, align 1, !tbaa !25
  %23 = load ptr, ptr %6, align 8, !tbaa !9
  %24 = getelementptr inbounds i8, ptr %23, i64 2
  %25 = load i8, ptr %24, align 1, !tbaa !25
  %26 = load ptr, ptr %5, align 8, !tbaa !9
  %27 = getelementptr inbounds i8, ptr %26, i64 2
  store i8 %25, ptr %27, align 1, !tbaa !25
  %28 = load ptr, ptr %6, align 8, !tbaa !9
  %29 = getelementptr inbounds i8, ptr %28, i64 3
  %30 = load i8, ptr %29, align 1, !tbaa !25
  %31 = load ptr, ptr %5, align 8, !tbaa !9
  %32 = getelementptr inbounds i8, ptr %31, i64 3
  store i8 %30, ptr %32, align 1, !tbaa !25
  %33 = load i64, ptr %8, align 8, !tbaa !15
  %34 = getelementptr inbounds nuw [8 x i32], ptr @_ZN10duckdb_lz4L10inc32tableE, i64 0, i64 %33
  %35 = load i32, ptr %34, align 4, !tbaa !3
  %36 = load ptr, ptr %6, align 8, !tbaa !9
  %37 = zext i32 %35 to i64
  %38 = getelementptr inbounds nuw i8, ptr %36, i64 %37
  store ptr %38, ptr %6, align 8, !tbaa !9
  %39 = load ptr, ptr %5, align 8, !tbaa !9
  %40 = getelementptr inbounds i8, ptr %39, i64 4
  %41 = load ptr, ptr %6, align 8, !tbaa !9
  call void @llvm.memcpy.p0.p0.i64(ptr align 1 %40, ptr align 1 %41, i64 4, i1 false)
  %42 = load i64, ptr %8, align 8, !tbaa !15
  %43 = getelementptr inbounds nuw [8 x i32], ptr @_ZN10duckdb_lz4L10dec64tableE, i64 0, i64 %42
  %44 = load i32, ptr %43, align 4, !tbaa !3
  %45 = load ptr, ptr %6, align 8, !tbaa !9
  %46 = sext i32 %44 to i64
  %47 = sub i64 0, %46
  %48 = getelementptr inbounds i8, ptr %45, i64 %47
  store ptr %48, ptr %6, align 8, !tbaa !9
  %49 = load ptr, ptr %5, align 8, !tbaa !9
  %50 = getelementptr inbounds i8, ptr %49, i64 8
  store ptr %50, ptr %5, align 8, !tbaa !9
  br label %58

51:                                               ; preds = %4
  %52 = load ptr, ptr %5, align 8, !tbaa !9
  %53 = load ptr, ptr %6, align 8, !tbaa !9
  call void @llvm.memcpy.p0.p0.i64(ptr align 1 %52, ptr align 1 %53, i64 8, i1 false)
  %54 = load ptr, ptr %5, align 8, !tbaa !9
  %55 = getelementptr inbounds i8, ptr %54, i64 8
  store ptr %55, ptr %5, align 8, !tbaa !9
  %56 = load ptr, ptr %6, align 8, !tbaa !9
  %57 = getelementptr inbounds i8, ptr %56, i64 8
  store ptr %57, ptr %6, align 8, !tbaa !9
  br label %58

58:                                               ; preds = %51, %11
  %59 = load ptr, ptr %5, align 8, !tbaa !9
  %60 = load ptr, ptr %6, align 8, !tbaa !9
  %61 = load ptr, ptr %7, align 8, !tbaa !9
  call void @_ZN10duckdb_lz4L13LZ4_wildCopy8EPvPKvS0_(ptr noundef %59, ptr noundef %60, ptr noundef %61)
  ret void
}

; Function Attrs: mustprogress uwtable
define internal void @_ZN10duckdb_lz4L23LZ4_memcpy_using_offsetEPhPKhS0_m(ptr noundef %0, ptr noundef %1, ptr noundef %2, i64 noundef %3) #1 {
  %5 = alloca ptr, align 8
  %6 = alloca ptr, align 8
  %7 = alloca ptr, align 8
  %8 = alloca i64, align 8
  %9 = alloca [8 x i8], align 1
  %10 = alloca i32, align 4
  store ptr %0, ptr %5, align 8, !tbaa !9
  store ptr %1, ptr %6, align 8, !tbaa !9
  store ptr %2, ptr %7, align 8, !tbaa !9
  store i64 %3, ptr %8, align 8, !tbaa !15
  call void @llvm.lifetime.start.p0(i64 8, ptr %9) #9
  %11 = load i64, ptr %8, align 8, !tbaa !15
  switch i64 %11, label %30 [
    i64 1, label %12
    i64 2, label %18
    i64 4, label %25
  ]

12:                                               ; preds = %4
  %13 = getelementptr inbounds [8 x i8], ptr %9, i64 0, i64 0
  %14 = load ptr, ptr %6, align 8, !tbaa !9
  %15 = load i8, ptr %14, align 1, !tbaa !25
  %16 = zext i8 %15 to i32
  %17 = trunc i32 %16 to i8
  call void @llvm.memset.p0.i64(ptr align 1 %13, i8 %17, i64 8, i1 false)
  br label %35

18:                                               ; preds = %4
  %19 = getelementptr inbounds [8 x i8], ptr %9, i64 0, i64 0
  %20 = load ptr, ptr %6, align 8, !tbaa !9
  call void @llvm.memcpy.p0.p0.i64(ptr align 1 %19, ptr align 1 %20, i64 2, i1 false)
  %21 = getelementptr inbounds [8 x i8], ptr %9, i64 0, i64 2
  %22 = load ptr, ptr %6, align 8, !tbaa !9
  call void @llvm.memcpy.p0.p0.i64(ptr align 1 %21, ptr align 1 %22, i64 2, i1 false)
  %23 = getelementptr inbounds [8 x i8], ptr %9, i64 0, i64 4
  %24 = getelementptr inbounds [8 x i8], ptr %9, i64 0, i64 0
  call void @llvm.memcpy.p0.p0.i64(ptr align 1 %23, ptr align 1 %24, i64 4, i1 false)
  br label %35

25:                                               ; preds = %4
  %26 = getelementptr inbounds [8 x i8], ptr %9, i64 0, i64 0
  %27 = load ptr, ptr %6, align 8, !tbaa !9
  call void @llvm.memcpy.p0.p0.i64(ptr align 1 %26, ptr align 1 %27, i64 4, i1 false)
  %28 = getelementptr inbounds [8 x i8], ptr %9, i64 0, i64 4
  %29 = load ptr, ptr %6, align 8, !tbaa !9
  call void @llvm.memcpy.p0.p0.i64(ptr align 1 %28, ptr align 1 %29, i64 4, i1 false)
  br label %35

30:                                               ; preds = %4
  %31 = load ptr, ptr %5, align 8, !tbaa !9
  %32 = load ptr, ptr %6, align 8, !tbaa !9
  %33 = load ptr, ptr %7, align 8, !tbaa !9
  %34 = load i64, ptr %8, align 8, !tbaa !15
  call void @_ZN10duckdb_lz4L28LZ4_memcpy_using_offset_baseEPhPKhS0_m(ptr noundef %31, ptr noundef %32, ptr noundef %33, i64 noundef %34)
  store i32 1, ptr %10, align 4
  br label %50

35:                                               ; preds = %25, %18, %12
  %36 = load ptr, ptr %5, align 8, !tbaa !9
  %37 = getelementptr inbounds [8 x i8], ptr %9, i64 0, i64 0
  call void @llvm.memcpy.p0.p0.i64(ptr align 1 %36, ptr align 1 %37, i64 8, i1 false)
  %38 = load ptr, ptr %5, align 8, !tbaa !9
  %39 = getelementptr inbounds i8, ptr %38, i64 8
  store ptr %39, ptr %5, align 8, !tbaa !9
  br label %40

40:                                               ; preds = %44, %35
  %41 = load ptr, ptr %5, align 8, !tbaa !9
  %42 = load ptr, ptr %7, align 8, !tbaa !9
  %43 = icmp ult ptr %41, %42
  br i1 %43, label %44, label %49

44:                                               ; preds = %40
  %45 = load ptr, ptr %5, align 8, !tbaa !9
  %46 = getelementptr inbounds [8 x i8], ptr %9, i64 0, i64 0
  call void @llvm.memcpy.p0.p0.i64(ptr align 1 %45, ptr align 1 %46, i64 8, i1 false)
  %47 = load ptr, ptr %5, align 8, !tbaa !9
  %48 = getelementptr inbounds i8, ptr %47, i64 8
  store ptr %48, ptr %5, align 8, !tbaa !9
  br label %40, !llvm.loop !73

49:                                               ; preds = %40
  store i32 0, ptr %10, align 4
  br label %50

50:                                               ; preds = %49, %30
  call void @llvm.lifetime.end.p0(i64 8, ptr %9) #9
  %51 = load i32, ptr %10, align 4
  switch i32 %51, label %53 [
    i32 0, label %52
    i32 1, label %52
  ]

52:                                               ; preds = %50, %50
  ret void

53:                                               ; preds = %50
  unreachable
}