; Function Attrs: mustprogress nofree norecurse nosync nounwind memory(argmem: readwrite) uwtable
define internal fastcc void @_ZN10duckdb_lz4L23LZ4_memcpy_using_offsetEPhPKhS0_m(ptr noundef writeonly captures(address) initializes((0, 8)) %0, ptr noundef readonly captures(none) %1, ptr noundef readnone captures(address) %2, i64 noundef range(i64 0, 16) %3) unnamed_addr #10 {
  switch i64 %3, label %10 [
    i64 1, label %5
    i64 2, label %8
    i64 4, label %9
  ]

5:                                                ; preds = %4
  %6 = load i8, ptr %1, align 1, !tbaa !3
  %7 = zext i8 %6 to i32
  %.sroa.0.0.isplat = mul nuw i32 %7, 16843009
  br label %43

8:                                                ; preds = %4
  %.sroa.0.0.copyload9 = load i16, ptr %1, align 1
  %.sroa.0.0.insert.ext = zext i16 %.sroa.0.0.copyload9 to i32
  %.sroa.0.2.insert.shift = shl nuw i32 %.sroa.0.0.insert.ext, 16
  %.sroa.0.2.insert.insert = or disjoint i32 %.sroa.0.2.insert.shift, %.sroa.0.0.insert.ext
  br label %43

9:                                                ; preds = %4
  %.sroa.0.0.copyload2 = load i32, ptr %1, align 1
  br label %43

10:                                               ; preds = %4
  %11 = icmp samesign ult i64 %3, 8
  br i1 %11, label %12, label %34

12:                                               ; preds = %10
  store i32 0, ptr %0, align 1, !tbaa !3
  %13 = load i8, ptr %1, align 1, !tbaa !3
  store i8 %13, ptr %0, align 1, !tbaa !3
  %14 = getelementptr inbounds nuw i8, ptr %1, i64 1
  %15 = load i8, ptr %14, align 1, !tbaa !3
  %16 = getelementptr inbounds nuw i8, ptr %0, i64 1
  store i8 %15, ptr %16, align 1, !tbaa !3
  %17 = getelementptr inbounds nuw i8, ptr %1, i64 2
  %18 = load i8, ptr %17, align 1, !tbaa !3
  %19 = getelementptr inbounds nuw i8, ptr %0, i64 2
  store i8 %18, ptr %19, align 1, !tbaa !3
  %20 = getelementptr inbounds nuw i8, ptr %1, i64 3
  %21 = load i8, ptr %20, align 1, !tbaa !3
  %22 = getelementptr inbounds nuw i8, ptr %0, i64 3
  store i8 %21, ptr %22, align 1, !tbaa !3
  %23 = getelementptr inbounds nuw [8 x i32], ptr @_ZN10duckdb_lz4L10inc32tableE, i64 0, i64 %3
  %24 = load i32, ptr %23, align 4, !tbaa !6
  %25 = zext i32 %24 to i64
  %26 = getelementptr inbounds nuw i8, ptr %1, i64 %25
  %27 = getelementptr inbounds nuw i8, ptr %0, i64 4
  %28 = load i32, ptr %26, align 1
  store i32 %28, ptr %27, align 1
  %29 = getelementptr inbounds nuw [8 x i32], ptr @_ZN10duckdb_lz4L10dec64tableE, i64 0, i64 %3
  %30 = load i32, ptr %29, align 4, !tbaa !6
  %31 = sext i32 %30 to i64
  %32 = sub nsw i64 0, %31
  %33 = getelementptr inbounds i8, ptr %26, i64 %32
  br label %37

34:                                               ; preds = %10
  %35 = load i64, ptr %1, align 1
  store i64 %35, ptr %0, align 1
  %36 = getelementptr inbounds nuw i8, ptr %1, i64 8
  br label %37

37:                                               ; preds = %34, %12
  %.023.i = phi ptr [ %33, %12 ], [ %36, %34 ]
  %.0.i = getelementptr inbounds nuw i8, ptr %0, i64 8
  br label %38

38:                                               ; preds = %38, %37
  %.09.i.i = phi ptr [ %.023.i, %37 ], [ %41, %38 ]
  %.0.i.i = phi ptr [ %.0.i, %37 ], [ %40, %38 ]
  %39 = load i64, ptr %.09.i.i, align 1
  store i64 %39, ptr %.0.i.i, align 1
  %40 = getelementptr inbounds nuw i8, ptr %.0.i.i, i64 8
  %41 = getelementptr inbounds nuw i8, ptr %.09.i.i, i64 8
  %42 = icmp ult ptr %40, %2
  br i1 %42, label %38, label %_ZN10duckdb_lz4L28LZ4_memcpy_using_offset_baseEPhPKhS0_m.exit, !llvm.loop !23

43:                                               ; preds = %9, %8, %5
  %.sroa.9.0 = phi i32 [ %.sroa.0.0.copyload2, %9 ], [ %.sroa.0.2.insert.insert, %8 ], [ %.sroa.0.0.isplat, %5 ]
  store i32 %.sroa.9.0, ptr %0, align 1
  %.sroa.9.0..sroa_idx = getelementptr inbounds nuw i8, ptr %0, i64 4
  store i32 %.sroa.9.0, ptr %.sroa.9.0..sroa_idx, align 1
  %.026 = getelementptr inbounds nuw i8, ptr %0, i64 8
  %44 = icmp ult ptr %.026, %2
  br i1 %44, label %.lr.ph, label %_ZN10duckdb_lz4L28LZ4_memcpy_using_offset_baseEPhPKhS0_m.exit

.lr.ph:                                           ; preds = %43, %.lr.ph
  %.028 = phi ptr [ %.0, %.lr.ph ], [ %.026, %43 ]
  %.pn27 = phi ptr [ %.028, %.lr.ph ], [ %0, %43 ]
  store i32 %.sroa.9.0, ptr %.028, align 1
  %.sroa.9.0..sroa_idx3 = getelementptr inbounds nuw i8, ptr %.pn27, i64 12
  store i32 %.sroa.9.0, ptr %.sroa.9.0..sroa_idx3, align 1
  %.0 = getelementptr inbounds nuw i8, ptr %.028, i64 8
  %45 = icmp ult ptr %.0, %2
  br i1 %45, label %.lr.ph, label %_ZN10duckdb_lz4L28LZ4_memcpy_using_offset_baseEPhPKhS0_m.exit, !llvm.loop !51

_ZN10duckdb_lz4L28LZ4_memcpy_using_offset_baseEPhPKhS0_m.exit: ; preds = %.lr.ph, %38, %43
  ret void
}